target datalayout = "e-m:e-p270:32:32-p271:32:32-p272:64:64-i64:64-i128:128-f80:128-n8:16:32:64-S128"
target triple = "x86_64-pc-linux-gnu"

%struct._zend_executor_globals = type { %struct._zval_struct, %struct._zval_struct, [32 x ptr], ptr, ptr, %struct._zend_array, %struct._zend_array, ptr, i32, i32, ptr, ptr, ptr, ptr, ptr, ptr, i64, ptr, ptr, i32, i32, i64, i32, i32, i32, i8, i8, %struct.zend_atomic_bool_s, %struct.zend_atomic_bool_s, ptr, i64, ptr, ptr, %struct._zend_array, %struct._zend_array, i32, i8, %struct._zval_struct, %struct._zval_struct, %struct._zend_stack, %struct._zend_stack, %struct._zend_stack, ptr, i32, i32, i64, ptr, ptr, ptr, %struct._zend_objects_store, ptr, ptr, ptr, [3 x %struct._zend_op], ptr, i8, i8, i64, i32, i32, ptr, [16 x %struct._HashTableIterator], ptr, %union._zend_function, %struct._zend_op, %struct._zend_array, i64, %struct.zend_get_gc_buffer, ptr, ptr, ptr, i64, i8, i32, ptr, ptr, i64, %struct._zend_call_stack, i64, i64, [6 x ptr] }
%struct.zend_atomic_bool_s = type { i8 }
%struct._zval_struct = type { %union._zend_value, %union.anon.0, %union.anon.3 }
%union._zend_value = type { i64 }
%union.anon.0 = type { i32 }
%union.anon.3 = type { i32 }
%struct._zend_stack = type { i32, i32, i32, ptr }
%struct._zend_objects_store = type { ptr, i32, i32, i32 }
%struct._HashTableIterator = type { ptr, i32, i32 }
%union._zend_function = type { %struct._zend_op_array }
%struct._zend_op_array = type { i8, [3 x i8], i32, ptr, ptr, ptr, i32, i32, ptr, ptr, ptr, ptr, i32, i32, i32, i32, ptr, ptr, ptr, ptr, ptr, i32, i32, ptr, ptr, ptr, i32, i32, i32, i32, ptr, ptr, [6 x ptr] }
%struct._zend_op = type { ptr, %union._znode_op, %union._znode_op, %union._znode_op, i32, i32, i8, i8, i8, i8 }
%union._znode_op = type { i32 }
%struct._zend_array = type { %struct._zend_refcounted_h, %union.anon.4, i32, %union.anon.6, i32, i32, i32, i32, i64, ptr }
%struct._zend_refcounted_h = type { i32, %union.anon }
%union.anon = type { i32 }
%union.anon.4 = type { i32 }
%union.anon.6 = type { ptr }
%struct.zend_get_gc_buffer = type { ptr, ptr, ptr }
%struct._zend_call_stack = type { ptr, i64 }
%struct._zend_string = type { %struct._zend_refcounted_h, i64, i64, [1 x i8] }
%struct._xmlNode = type { ptr, i32, ptr, ptr, ptr, ptr, ptr, ptr, ptr, ptr, ptr, ptr, ptr, ptr, i16, i16 }
%struct._dom_object = type { ptr, ptr, ptr, %struct._zend_object }
%struct._zend_object = type { %struct._zend_refcounted_h, i32, ptr, ptr, ptr, [1 x %struct._zval_struct] }
%struct._zend_execute_data = type { ptr, ptr, ptr, ptr, %struct._zval_struct, ptr, ptr, ptr, ptr }
%struct._zend_class_entry = type { i8, ptr, %union.anon.8, i32, i32, i32, i32, ptr, ptr, ptr, %struct._zend_array, %struct._zend_array, %struct._zend_array, ptr, ptr, ptr, ptr, ptr, ptr, ptr, ptr, ptr, ptr, ptr, ptr, ptr, ptr, ptr, ptr, ptr, ptr, ptr, %union.anon.9, ptr, ptr, ptr, ptr, i32, i32, %union.anon.10, ptr, ptr, ptr, ptr, i32, ptr, ptr, %union.anon.11 }
%union.anon.8 = type { ptr }
%union.anon.9 = type { ptr }
%union.anon.10 = type { ptr }
%union.anon.11 = type { %struct.anon.12 }
%struct.anon.12 = type { ptr, i32, i32 }
%struct._php_libxml_node_ptr = type { ptr, i32, ptr }

@executor_globals = external global %struct._zend_executor_globals, align 8
@.str.11 = private unnamed_addr constant [18 x i8] c"Couldn't fetch %s\00", align 1
@.str.16 = private unnamed_addr constant [3 x i8] c"|b\00", align 1

; Function Attrs: nounwind uwtable
define internal ptr @php_dom_obj_from_obj(ptr noundef %0) #0 {
  %2 = alloca ptr, align 8
  store ptr %0, ptr %2, align 8
  %3 = load ptr, ptr %2, align 8
  %4 = getelementptr inbounds i8, ptr %3, i64 -24
  ret ptr %4
}

; Function Attrs: nounwind uwtable
define hidden void @zim_DOMNode_cloneNode(ptr noundef %0, ptr noundef %1) #0 {
  %3 = alloca ptr, align 8
  %4 = alloca ptr, align 8
  %5 = alloca ptr, align 8
  %6 = alloca ptr, align 8
  %7 = alloca ptr, align 8
  %8 = alloca i32, align 4
  %9 = alloca ptr, align 8
  %10 = alloca i8, align 1
  store ptr %0, ptr %3, align 8
  store ptr %1, ptr %4, align 8
  store i8 0, ptr %10, align 1
  %11 = load ptr, ptr %3, align 8
  %12 = getelementptr inbounds %struct._zend_execute_data, ptr %11, i32 0, i32 4
  store ptr %12, ptr %5, align 8
  %13 = load ptr, ptr %3, align 8
  %14 = getelementptr inbounds %struct._zend_execute_data, ptr %13, i32 0, i32 4
  %15 = getelementptr inbounds %struct._zval_struct, ptr %14, i32 0, i32 2
  %16 = load i32, ptr %15, align 4
  %17 = call i32 (i32, ptr, ...) @zend_parse_parameters(i32 noundef %16, ptr noundef @.str.16, ptr noundef %10)
  %18 = icmp eq i32 %17, -1
  br i1 %18, label %19, label %24

19:                                               ; preds = %2
  br label %20

20:                                               ; preds = %19
  %21 = load ptr, ptr getelementptr inbounds (%struct._zend_executor_globals, ptr @executor_globals, i32 0, i32 50), align 8
  %22 = icmp ne ptr %21, null
  call void @llvm.assume(i1 %22)
  br label %110

23:                                               ; No predecessors!
  br label %24

24:                                               ; preds = %23, %2
  %25 = load ptr, ptr %5, align 8
  %26 = getelementptr inbounds %struct._zval_struct, ptr %25, i32 0, i32 0
  %27 = load ptr, ptr %26, align 8
  %28 = call ptr @php_dom_obj_from_obj(ptr noundef %27)
  store ptr %28, ptr %9, align 8
  %29 = load ptr, ptr %9, align 8
  %30 = getelementptr inbounds %struct._dom_object, ptr %29, i32 0, i32 0
  %31 = load ptr, ptr %30, align 8
  %32 = icmp eq ptr %31, null
  %33 = xor i1 %32, true
  %34 = xor i1 %33, true
  %35 = zext i1 %34 to i32
  %36 = sext i32 %35 to i64
  %37 = icmp ne i64 %36, 0
  br i1 %37, label %38, label %51

38:                                               ; preds = %24
  %39 = load ptr, ptr %9, align 8
  %40 = getelementptr inbounds %struct._dom_object, ptr %39, i32 0, i32 3
  %41 = getelementptr inbounds %struct._zend_object, ptr %40, i32 0, i32 2
  %42 = load ptr, ptr %41, align 8
  %43 = getelementptr inbounds %struct._zend_class_entry, ptr %42, i32 0, i32 1
  %44 = load ptr, ptr %43, align 8
  %45 = getelementptr inbounds %struct._zend_string, ptr %44, i32 0, i32 3
  %46 = getelementptr inbounds [1 x i8], ptr %45, i64 0, i64 0
  call void (ptr, ptr, ...) @zend_throw_error(ptr noundef null, ptr noundef @.str.11, ptr noundef %46)
  br label %47

47:                                               ; preds = %38
  %48 = load ptr, ptr getelementptr inbounds (%struct._zend_executor_globals, ptr @executor_globals, i32 0, i32 50), align 8
  %49 = icmp ne ptr %48, null
  call void @llvm.assume(i1 %49)
  br label %110

50:                                               ; No predecessors!
  br label %51

51:                                               ; preds = %50, %24
  %52 = load ptr, ptr %9, align 8
  %53 = getelementptr inbounds %struct._dom_object, ptr %52, i32 0, i32 0
  %54 = load ptr, ptr %53, align 8
  %55 = getelementptr inbounds %struct._php_libxml_node_ptr, ptr %54, i32 0, i32 0
  %56 = load ptr, ptr %55, align 8
  store ptr %56, ptr %6, align 8
  %57 = load ptr, ptr %6, align 8
  %58 = load ptr, ptr %6, align 8
  %59 = getelementptr inbounds %struct._xmlNode, ptr %58, i32 0, i32 8
  %60 = load ptr, ptr %59, align 8
  %61 = load ptr, ptr %9, align 8
  %62 = load i8, ptr %10, align 1
  %63 = trunc i8 %62 to i1
  %64 = call ptr @dom_clone_node(ptr noundef %57, ptr noundef %60, ptr noundef %61, i1 noundef zeroext %63)
  store ptr %64, ptr %7, align 8
  %65 = load ptr, ptr %7, align 8
  %66 = icmp ne ptr %65, null
  br i1 %66, label %74, label %67

67:                                               ; preds = %51
  br label %68

68:                                               ; preds = %67
  br label %69

69:                                               ; preds = %68
  %70 = load ptr, ptr %4, align 8
  %71 = getelementptr inbounds %struct._zval_struct, ptr %70, i32 0, i32 1
  store i32 2, ptr %71, align 8
  br label %72

72:                                               ; preds = %69
  br label %110

73:                                               ; No predecessors!
  br label %74

74:                                               ; preds = %73, %51
  %75 = load ptr, ptr %7, align 8
  %76 = getelementptr inbounds %struct._xmlNode, ptr %75, i32 0, i32 1
  %77 = load i32, ptr %76, align 8
  %78 = icmp eq i32 %77, 2
  br i1 %78, label %79, label %95

79:                                               ; preds = %74
  %80 = load ptr, ptr %6, align 8
  %81 = getelementptr inbounds %struct._xmlNode, ptr %80, i32 0, i32 9
  %82 = load ptr, ptr %81, align 8
  %83 = icmp ne ptr %82, null
  br i1 %83, label %84, label %95

84:                                               ; preds = %79
  %85 = load ptr, ptr %7, align 8
  %86 = getelementptr inbounds %struct._xmlNode, ptr %85, i32 0, i32 9
  %87 = load ptr, ptr %86, align 8
  %88 = icmp eq ptr %87, null
  br i1 %88, label %89, label %95

89:                                               ; preds = %84
  %90 = load ptr, ptr %6, align 8
  %91 = getelementptr inbounds %struct._xmlNode, ptr %90, i32 0, i32 9
  %92 = load ptr, ptr %91, align 8
  %93 = load ptr, ptr %7, align 8
  %94 = getelementptr inbounds %struct._xmlNode, ptr %93, i32 0, i32 9
  store ptr %92, ptr %94, align 8
  br label %95

95:                                               ; preds = %89, %84, %79, %74
  %96 = load ptr, ptr %7, align 8
  %97 = getelementptr inbounds %struct._xmlNode, ptr %96, i32 0, i32 8
  %98 = load ptr, ptr %97, align 8
  %99 = load ptr, ptr %6, align 8
  %100 = getelementptr inbounds %struct._xmlNode, ptr %99, i32 0, i32 8
  %101 = load ptr, ptr %100, align 8
  %102 = icmp ne ptr %98, %101
  br i1 %102, label %103, label %104

103:                                              ; preds = %95
  store ptr null, ptr %9, align 8
  br label %104

104:                                              ; preds = %103, %95
  %105 = load ptr, ptr %7, align 8
  %106 = load ptr, ptr %4, align 8
  %107 = load ptr, ptr %9, align 8
  %108 = call zeroext i1 @php_dom_create_object(ptr noundef %105, ptr noundef %106, ptr noundef %107)
  %109 = zext i1 %108 to i32
  store i32 %109, ptr %8, align 4
  br label %110

110:                                              ; preds = %104, %72, %47, %20
  ret void
}