; Function Attrs: nounwind uwtable
define hidden void @zim_DOMNode_cloneNode(ptr nocapture noundef readonly %0, ptr noundef %1) local_unnamed_addr #0 {
  %3 = alloca i8, align 1
  store i8 0, ptr %3, align 1
  %4 = getelementptr inbounds i8, ptr %0, i64 44
  %5 = load i32, ptr %4, align 4
  %6 = call i32 (i32, ptr, ...) @zend_parse_parameters(i32 noundef %5, ptr noundef nonnull @.str.16, ptr noundef nonnull %3) #12
  %7 = icmp eq i32 %6, -1
  br i1 %7, label %8, label %11

8:                                                ; preds = %2
  %9 = load ptr, ptr getelementptr inbounds (%struct._zend_executor_globals, ptr @executor_globals, i64 0, i32 50), align 8
  %10 = icmp ne ptr %9, null
  call void @llvm.assume(i1 %10)
  br label %52

11:                                               ; preds = %2
  %12 = getelementptr inbounds i8, ptr %0, i64 32
  %13 = load ptr, ptr %12, align 8
  %14 = getelementptr inbounds i8, ptr %13, i64 -24
  %15 = load ptr, ptr %14, align 8
  %16 = icmp eq ptr %15, null
  br i1 %16, label %17, label %25

17:                                               ; preds = %11
  %18 = getelementptr inbounds i8, ptr %13, i64 16
  %19 = load ptr, ptr %18, align 8
  %20 = getelementptr inbounds i8, ptr %19, i64 8
  %21 = load ptr, ptr %20, align 8
  %22 = getelementptr inbounds i8, ptr %21, i64 24
  call void (ptr, ptr, ...) @zend_throw_error(ptr noundef null, ptr noundef nonnull @.str.11, ptr noundef nonnull %22) #12
  %23 = load ptr, ptr getelementptr inbounds (%struct._zend_executor_globals, ptr @executor_globals, i64 0, i32 50), align 8
  %24 = icmp ne ptr %23, null
  call void @llvm.assume(i1 %24)
  br label %52

25:                                               ; preds = %11
  %26 = load ptr, ptr %15, align 8
  %27 = getelementptr inbounds i8, ptr %26, i64 64
  %28 = load ptr, ptr %27, align 8
  %29 = load i8, ptr %3, align 1
  %30 = and i8 %29, 1
  %31 = icmp ne i8 %30, 0
  %32 = call ptr @dom_clone_node(ptr noundef %26, ptr noundef %28, ptr noundef nonnull %14, i1 noundef zeroext %31) #12
  %.not = icmp eq ptr %32, null
  br i1 %.not, label %33, label %35

33:                                               ; preds = %25
  %34 = getelementptr inbounds i8, ptr %1, i64 8
  store i32 2, ptr %34, align 8
  br label %52

35:                                               ; preds = %25
  %36 = getelementptr inbounds i8, ptr %32, i64 8
  %37 = load i32, ptr %36, align 8
  %38 = icmp eq i32 %37, 2
  br i1 %38, label %39, label %47

39:                                               ; preds = %35
  %40 = getelementptr inbounds i8, ptr %26, i64 72
  %41 = load ptr, ptr %40, align 8
  %.not24 = icmp eq ptr %41, null
  br i1 %.not24, label %47, label %42

42:                                               ; preds = %39
  %43 = getelementptr inbounds i8, ptr %32, i64 72
  %44 = load ptr, ptr %43, align 8
  %45 = icmp eq ptr %44, null
  br i1 %45, label %46, label %47

46:                                               ; preds = %42
  store ptr %41, ptr %43, align 8
  br label %47

47:                                               ; preds = %46, %42, %39, %35
  %48 = getelementptr inbounds i8, ptr %32, i64 64
  %49 = load ptr, ptr %48, align 8
  %50 = load ptr, ptr %27, align 8
  %.not25 = icmp eq ptr %49, %50
  %spec.select = select i1 %.not25, ptr %14, ptr null
  %51 = call zeroext i1 @php_dom_create_object(ptr noundef nonnull %32, ptr noundef %1, ptr noundef %spec.select) #12
  br label %52

52:                                               ; preds = %47, %33, %17, %8
  ret void
}